; Function Attrs: null_pointer_is_valid sspstrong uwtable
define internal i32 @dissect_h450_arg(ptr noundef %0, ptr noundef %1, ptr noundef %2, ptr noundef %3) #0 {
  %5 = icmp eq ptr %3, null
  br i1 %5, label %get_op.exit.thread, label %6

6:                                                ; preds = %4
  %7 = tail call ptr @get_rose_ctx(ptr noundef nonnull %3)
  %.not = icmp eq ptr %7, null
  br i1 %.not, label %8, label %9

8:                                                ; preds = %6
  tail call void (ptr, ...) @proto_report_dissector_bug(ptr noundef nonnull @.str.821, ptr noundef nonnull @.str.822, i32 noundef 4672, ptr noundef nonnull @.str.823) #5
  unreachable

9:                                                ; preds = %6
  %10 = getelementptr inbounds nuw i8, ptr %7, i64 80
  %11 = load i32, ptr %10, align 8
  %.not45 = icmp eq i32 %11, 1
  br i1 %.not45, label %12, label %get_op.exit.thread

12:                                               ; preds = %9
  %13 = getelementptr inbounds nuw i8, ptr %7, i64 84
  %14 = load i32, ptr %13, align 4
  %.not46 = icmp eq i32 %14, 0
  br i1 %.not46, label %15, label %get_op.exit.thread

15:                                               ; preds = %12
  %16 = getelementptr inbounds nuw i8, ptr %7, i64 88
  %17 = load i32, ptr %16, align 8
  br label %20

18:                                               ; preds = %20
  %19 = add nsw i32 %.06.i, -1
  %.not.i = icmp eq i32 %.06.i, 0
  br i1 %.not.i, label %get_op.exit.thread, label %20, !llvm.loop !6

20:                                               ; preds = %18, %15
  %.06.i = phi i32 [ 57, %15 ], [ %19, %18 ]
  %21 = zext nneg i32 %.06.i to i64
  %22 = getelementptr [58 x %struct._h450_op_t], ptr @h450_op_tab, i64 0, i64 %21
  %23 = load i32, ptr %22, align 8
  %24 = icmp eq i32 %23, %17
  br i1 %24, label %get_op.exit, label %18

get_op.exit:                                      ; preds = %20
  %.not47 = icmp eq ptr %22, null
  br i1 %.not47, label %get_op.exit.thread, label %25

25:                                               ; preds = %get_op.exit
  %26 = load i32, ptr @hf_h450_operation, align 4
  %27 = tail call ptr @proto_tree_add_uint(ptr noundef %2, i32 noundef %26, ptr noundef %0, i32 noundef 0, i32 noundef 0, i32 noundef %17)
  %.not.i50 = icmp eq ptr %27, null
  br i1 %.not.i50, label %proto_item_set_hidden.exit, label %28

28:                                               ; preds = %25
  %29 = getelementptr inbounds nuw i8, ptr %27, i64 40
  %30 = load ptr, ptr %29, align 8
  %.not5.i = icmp eq ptr %30, null
  br i1 %.not5.i, label %proto_item_set_hidden.exit, label %31

31:                                               ; preds = %28
  %32 = getelementptr inbounds nuw i8, ptr %30, i64 28
  %33 = load i32, ptr %32, align 4
  %34 = or i32 %33, 1
  store i32 %34, ptr %32, align 4
  br label %proto_item_set_hidden.exit

proto_item_set_hidden.exit:                       ; preds = %25, %28, %31
  %35 = tail call ptr @try_val_to_str(i32 noundef %17, ptr noundef nonnull @h450_str_operation)
  %.not48 = icmp eq ptr %35, null
  br i1 %.not48, label %46, label %36

36:                                               ; preds = %proto_item_set_hidden.exit
  %37 = getelementptr inbounds nuw i8, ptr %7, i64 104
  %38 = load ptr, ptr %37, align 8
  tail call void (ptr, ptr, ...) @proto_item_append_text(ptr noundef %38, ptr noundef nonnull @.str.824, ptr noundef nonnull %35)
  %39 = getelementptr inbounds nuw i8, ptr %7, i64 56
  %40 = load i32, ptr %39, align 8
  %41 = icmp sgt i32 %40, -1
  br i1 %41, label %42, label %46

42:                                               ; preds = %36
  %43 = tail call ptr @proto_tree_get_parent(ptr noundef %2)
  %44 = load i32, ptr %39, align 8
  %45 = tail call ptr @proto_item_get_parent_nth(ptr noundef %43, i32 noundef %44)
  tail call void (ptr, ptr, ...) @proto_item_append_text(ptr noundef %45, ptr noundef nonnull @.str.825, ptr noundef nonnull %35)
  br label %46

46:                                               ; preds = %36, %42, %proto_item_set_hidden.exit
  %47 = getelementptr inbounds nuw i8, ptr %22, i64 8
  %48 = load ptr, ptr %47, align 8
  %.not49 = icmp eq ptr %48, null
  br i1 %.not49, label %54, label %49

49:                                               ; preds = %46
  %50 = tail call i32 @tvb_reported_length_remaining(ptr noundef %0, i32 noundef 0)
  %51 = icmp sgt i32 %50, 0
  br i1 %51, label %52, label %54

52:                                               ; preds = %49
  %53 = tail call i32 %48(ptr noundef %0, ptr noundef %1, ptr noundef %2, ptr noundef null)
  br label %get_op.exit.thread

54:                                               ; preds = %49, %46
  %55 = tail call i32 @tvb_reported_length_remaining(ptr noundef %0, i32 noundef 0)
  %56 = icmp sgt i32 %55, 0
  br i1 %56, label %57, label %get_op.exit.thread

57:                                               ; preds = %54
  %58 = tail call ptr @proto_tree_add_expert(ptr noundef %2, ptr noundef %1, ptr noundef nonnull @ei_h450_unsupported_arg_type, ptr noundef %0, i32 noundef 0, i32 noundef -1)
  %59 = tail call i32 @tvb_reported_length_remaining(ptr noundef %0, i32 noundef 0)
  br label %get_op.exit.thread

get_op.exit.thread:                               ; preds = %18, %52, %57, %54, %get_op.exit, %12, %9, %4
  %.0 = phi i32 [ 0, %4 ], [ 0, %9 ], [ 0, %12 ], [ 0, %get_op.exit ], [ %53, %52 ], [ %59, %57 ], [ 0, %54 ], [ 0, %18 ]
  ret i32 %.0
}